; ModuleID = 'source-C-CXX/14/2179.c'
source_filename = "source-C-CXX/14/2179.c"
target datalayout = "e-m:e-p270:32:32-p271:32:32-p272:64:64-i64:64-f80:128-n8:16:32:64-S128"
target triple = "x86_64-pc-linux-gnu"

@.str = private unnamed_addr constant [3 x i8] c"%d\00", align 1

; Function Attrs: nofree nounwind sspstrong uwtable
define dso_local i32 @main() local_unnamed_addr #0 {
  %1 = alloca i32, align 4
  %2 = alloca i32, align 4
  %3 = bitcast i32* %1 to i8*
  call void @llvm.lifetime.start.p0i8(i64 4, i8* nonnull %3) #3
  %4 = bitcast i32* %2 to i8*
  call void @llvm.lifetime.start.p0i8(i64 4, i8* nonnull %4) #3
  %5 = call i32 (i8*, ...) @__isoc99_scanf(i8* getelementptr inbounds ([3 x i8], [3 x i8]* @.str, i64 0, i64 0), i32* nonnull %1)
  %6 = load i32, i32* %1, align 4, !tbaa !5
  %7 = icmp sgt i32 %6, 0
  br i1 %7, label %8, label %46

8:                                                ; preds = %0, %37
  %9 = phi i32 [ %38, %37 ], [ %6, %0 ]
  %10 = phi i32 [ %43, %37 ], [ 0, %0 ]
  %11 = phi i32 [ %42, %37 ], [ undef, %0 ]
  %12 = phi i32 [ %44, %37 ], [ 0, %0 ]
  %13 = phi i32 [ %41, %37 ], [ undef, %0 ]
  %14 = phi i32 [ %40, %37 ], [ undef, %0 ]
  %15 = phi i32 [ %39, %37 ], [ undef, %0 ]
  %16 = icmp sgt i32 %9, 0
  br i1 %16, label %17, label %37

17:                                               ; preds = %8, %17
  %18 = phi i32 [ %31, %17 ], [ %10, %8 ]
  %19 = phi i32 [ %30, %17 ], [ %11, %8 ]
  %20 = phi i32 [ %34, %17 ], [ 0, %8 ]
  %21 = phi i32 [ %33, %17 ], [ %13, %8 ]
  %22 = phi i32 [ %32, %17 ], [ %14, %8 ]
  %23 = phi i32 [ %29, %17 ], [ %15, %8 ]
  %24 = call i32 (i8*, ...) @__isoc99_scanf(i8* getelementptr inbounds ([3 x i8], [3 x i8]* @.str, i64 0, i64 0), i32* nonnull %2)
  %25 = load i32, i32* %2, align 4, !tbaa !5
  %26 = icmp eq i32 %25, 0
  %27 = icmp eq i32 %18, 0
  %28 = select i1 %26, i1 %27, i1 false
  %29 = select i1 %28, i32 %20, i32 %23
  %30 = select i1 %28, i32 %12, i32 %19
  %31 = select i1 %28, i32 1, i32 %18
  %32 = select i1 %26, i32 %12, i32 %22
  %33 = select i1 %26, i32 %20, i32 %21
  %34 = add nuw nsw i32 %20, 1
  %35 = load i32, i32* %1, align 4, !tbaa !5
  %36 = icmp slt i32 %34, %35
  br i1 %36, label %17, label %37, !llvm.loop !9

37:                                               ; preds = %17, %8
  %38 = phi i32 [ %9, %8 ], [ %35, %17 ]
  %39 = phi i32 [ %15, %8 ], [ %29, %17 ]
  %40 = phi i32 [ %14, %8 ], [ %32, %17 ]
  %41 = phi i32 [ %13, %8 ], [ %33, %17 ]
  %42 = phi i32 [ %11, %8 ], [ %30, %17 ]
  %43 = phi i32 [ %10, %8 ], [ %31, %17 ]
  %44 = add nuw nsw i32 %12, 1
  %45 = icmp slt i32 %44, %38
  br i1 %45, label %8, label %46, !llvm.loop !11

46:                                               ; preds = %37, %0
  %47 = phi i32 [ undef, %0 ], [ %39, %37 ]
  %48 = phi i32 [ undef, %0 ], [ %40, %37 ]
  %49 = phi i32 [ undef, %0 ], [ %41, %37 ]
  %50 = phi i32 [ undef, %0 ], [ %42, %37 ]
  %51 = xor i32 %50, -1
  %52 = add i32 %48, %51
  %53 = xor i32 %47, -1
  %54 = add i32 %49, %53
  %55 = mul nsw i32 %52, %54
  %56 = call i32 (i8*, ...) @printf(i8* nonnull dereferenceable(1) getelementptr inbounds ([3 x i8], [3 x i8]* @.str, i64 0, i64 0), i32 %55)
  call void @llvm.lifetime.end.p0i8(i64 4, i8* nonnull %4) #3
  call void @llvm.lifetime.end.p0i8(i64 4, i8* nonnull %3) #3
  ret i32 0
}

; Function Attrs: argmemonly mustprogress nofree nosync nounwind willreturn
declare void @llvm.lifetime.start.p0i8(i64 immarg, i8* nocapture) #1

; Function Attrs: nofree nounwind
declare noundef i32 @__isoc99_scanf(i8* nocapture noundef readonly, ...) local_unnamed_addr #2

; Function Attrs: nofree nounwind
declare noundef i32 @printf(i8* nocapture noundef readonly, ...) local_unnamed_addr #2

; Function Attrs: argmemonly mustprogress nofree nosync nounwind willreturn
declare void @llvm.lifetime.end.p0i8(i64 immarg, i8* nocapture) #1


!llvm.module.flags = !{!0, !1, !2, !3}
!llvm.ident = !{!4}

!0 = !{i32 1, !"wchar_size", i32 4}
!1 = !{i32 7, !"PIC Level", i32 2}
!2 = !{i32 7, !"PIE Level", i32 2}
!3 = !{i32 7, !"uwtable", i32 1}
!4 = !{!"clang version 13.0.0"}
!5 = !{!6, !6, i64 0}
!6 = !{!"int", !7, i64 0}
!7 = !{!"omnipotent char", !8, i64 0}
!8 = !{!"Simple C/C++ TBAA"}
!9 = distinct !{!9, !10}
!10 = !{!"llvm.loop.mustprogress"}
!11 = distinct !{!11, !10, !12}
!12 = !{!"llvm.loop.unswitch.partial.disable"}
